target datalayout = "e-m:e-p270:32:32-p271:32:32-p272:64:64-i64:64-i128:128-f80:128-n8:16:32:64-S128"
target triple = "x86_64-pc-linux-gnu"

%struct.AVTextFormatContext = type { ptr, ptr, ptr, ptr, ptr, ptr, i32, i32, [12 x i32], [12 x [100 x i32]], [12 x ptr], [12 x %struct.AVBPrint], i32, i32, i32, i32, i32, ptr, i32, ptr, i32 }
%struct.AVBPrint = type { ptr, i32, i32, i32, [1 x i8], [1000 x i8] }
%struct.AVTextFormatSection = type { i32, ptr, i32, [12 x i32], ptr, ptr, ptr, ptr, i32, ptr, ptr, ptr, ptr }
%struct.DefaultContext = type { ptr, i32, i32, [12 x i32] }

@.str.11 = private unnamed_addr constant [36 x i8] c"Invalid section access at level %d\0A\00", align 1
@.str.12 = private unnamed_addr constant [7 x i8] c"[/%s]\0A\00", align 1

; Function Attrs: inlinehint nounwind willreturn memory(none) uwtable
define internal i32 @av_toupper(i32 noundef %0) #4 {
  %2 = alloca i32, align 4
  store i32 %0, ptr %2, align 4, !tbaa !26
  %3 = load i32, ptr %2, align 4, !tbaa !26
  %4 = icmp sge i32 %3, 97
  br i1 %4, label %5, label %11

5:                                                ; preds = %1
  %6 = load i32, ptr %2, align 4, !tbaa !26
  %7 = icmp sle i32 %6, 122
  br i1 %7, label %8, label %11

8:                                                ; preds = %5
  %9 = load i32, ptr %2, align 4, !tbaa !26
  %10 = xor i32 %9, 32
  store i32 %10, ptr %2, align 4, !tbaa !26
  br label %11

11:                                               ; preds = %8, %5, %1
  %12 = load i32, ptr %2, align 4, !tbaa !26
  ret i32 %12
}

; Function Attrs: inlinehint nounwind uwtable
define internal ptr @upcase_string(ptr noundef %0, i64 noundef %1, ptr noundef %2) #3 {
  %4 = alloca ptr, align 8
  %5 = alloca i64, align 8
  %6 = alloca ptr, align 8
  %7 = alloca i32, align 4
  store ptr %0, ptr %4, align 8, !tbaa !33
  store i64 %1, ptr %5, align 8, !tbaa !34
  store ptr %2, ptr %6, align 8, !tbaa !33
  call void @llvm.lifetime.start.p0(i64 4, ptr %7) #6
  store i32 0, ptr %7, align 4, !tbaa !26
  br label %8

8:                                                ; preds = %37, %3
  %9 = load ptr, ptr %6, align 8, !tbaa !33
  %10 = load i32, ptr %7, align 4, !tbaa !26
  %11 = zext i32 %10 to i64
  %12 = getelementptr inbounds nuw i8, ptr %9, i64 %11
  %13 = load i8, ptr %12, align 1, !tbaa !37
  %14 = sext i8 %13 to i32
  %15 = icmp ne i32 %14, 0
  br i1 %15, label %16, label %22

16:                                               ; preds = %8
  %17 = load i32, ptr %7, align 4, !tbaa !26
  %18 = zext i32 %17 to i64
  %19 = load i64, ptr %5, align 8, !tbaa !34
  %20 = sub i64 %19, 1
  %21 = icmp ult i64 %18, %20
  br label %22

22:                                               ; preds = %16, %8
  %23 = phi i1 [ false, %8 ], [ %21, %16 ]
  br i1 %23, label %24, label %40

24:                                               ; preds = %22
  %25 = load ptr, ptr %6, align 8, !tbaa !33
  %26 = load i32, ptr %7, align 4, !tbaa !26
  %27 = zext i32 %26 to i64
  %28 = getelementptr inbounds nuw i8, ptr %25, i64 %27
  %29 = load i8, ptr %28, align 1, !tbaa !37
  %30 = sext i8 %29 to i32
  %31 = call i32 @av_toupper(i32 noundef %30) #7
  %32 = trunc i32 %31 to i8
  %33 = load ptr, ptr %4, align 8, !tbaa !33
  %34 = load i32, ptr %7, align 4, !tbaa !26
  %35 = zext i32 %34 to i64
  %36 = getelementptr inbounds nuw i8, ptr %33, i64 %35
  store i8 %32, ptr %36, align 1, !tbaa !37
  br label %37

37:                                               ; preds = %24
  %38 = load i32, ptr %7, align 4, !tbaa !26
  %39 = add i32 %38, 1
  store i32 %39, ptr %7, align 4, !tbaa !26
  br label %8, !llvm.loop !38

40:                                               ; preds = %22
  %41 = load ptr, ptr %4, align 8, !tbaa !33
  %42 = load i32, ptr %7, align 4, !tbaa !26
  %43 = zext i32 %42 to i64
  %44 = getelementptr inbounds nuw i8, ptr %41, i64 %43
  store i8 0, ptr %44, align 1, !tbaa !37
  %45 = load ptr, ptr %4, align 8, !tbaa !33
  call void @llvm.lifetime.end.p0(i64 4, ptr %7) #6
  ret ptr %45
}

; Function Attrs: inlinehint nounwind uwtable
define internal ptr @tf_get_section(ptr noundef %0, i32 noundef %1) #3 {
  %3 = alloca ptr, align 8
  %4 = alloca ptr, align 8
  %5 = alloca i32, align 4
  store ptr %0, ptr %4, align 8, !tbaa !4
  store i32 %1, ptr %5, align 4, !tbaa !26
  %6 = load ptr, ptr %4, align 8, !tbaa !4
  %7 = icmp ne ptr %6, null
  br i1 %7, label %8, label %22

8:                                                ; preds = %2
  %9 = load i32, ptr %5, align 4, !tbaa !26
  %10 = icmp slt i32 %9, 0
  br i1 %10, label %22, label %11

11:                                               ; preds = %8
  %12 = load i32, ptr %5, align 4, !tbaa !26
  %13 = icmp sge i32 %12, 12
  br i1 %13, label %22, label %14

14:                                               ; preds = %11
  %15 = load ptr, ptr %4, align 8, !tbaa !4
  %16 = getelementptr inbounds nuw %struct.AVTextFormatContext, ptr %15, i32 0, i32 10
  %17 = load i32, ptr %5, align 4, !tbaa !26
  %18 = sext i32 %17 to i64
  %19 = getelementptr inbounds [12 x ptr], ptr %16, i64 0, i64 %18
  %20 = load ptr, ptr %19, align 8, !tbaa !22
  %21 = icmp ne ptr %20, null
  br i1 %21, label %29, label %22

22:                                               ; preds = %14, %11, %8, %2
  %23 = load ptr, ptr %4, align 8, !tbaa !4
  %24 = icmp ne ptr %23, null
  br i1 %24, label %25, label %28

25:                                               ; preds = %22
  %26 = load ptr, ptr %4, align 8, !tbaa !4
  %27 = load i32, ptr %5, align 4, !tbaa !26
  call void (ptr, i32, ptr, ...) @av_log(ptr noundef %26, i32 noundef 16, ptr noundef @.str.11, i32 noundef %27)
  br label %28

28:                                               ; preds = %25, %22
  store ptr null, ptr %3, align 8
  br label %36

29:                                               ; preds = %14
  %30 = load ptr, ptr %4, align 8, !tbaa !4
  %31 = getelementptr inbounds nuw %struct.AVTextFormatContext, ptr %30, i32 0, i32 10
  %32 = load i32, ptr %5, align 4, !tbaa !26
  %33 = sext i32 %32 to i64
  %34 = getelementptr inbounds [12 x ptr], ptr %31, i64 0, i64 %33
  %35 = load ptr, ptr %34, align 8, !tbaa !22
  store ptr %35, ptr %3, align 8
  br label %36

36:                                               ; preds = %29, %28
  %37 = load ptr, ptr %3, align 8
  ret ptr %37
}

; Function Attrs: nounwind uwtable
define internal void @default_print_section_footer(ptr noundef %0) #0 {
  %2 = alloca ptr, align 8
  %3 = alloca ptr, align 8
  %4 = alloca ptr, align 8
  %5 = alloca [32 x i8], align 16
  %6 = alloca i32, align 4
  store ptr %0, ptr %2, align 8, !tbaa !4
  call void @llvm.lifetime.start.p0(i64 8, ptr %3) #6
  %7 = load ptr, ptr %2, align 8, !tbaa !4
  %8 = getelementptr inbounds nuw %struct.AVTextFormatContext, ptr %7, i32 0, i32 4
  %9 = load ptr, ptr %8, align 8, !tbaa !10
  store ptr %9, ptr %3, align 8, !tbaa !19
  call void @llvm.lifetime.start.p0(i64 8, ptr %4) #6
  %10 = load ptr, ptr %2, align 8, !tbaa !4
  %11 = load ptr, ptr %2, align 8, !tbaa !4
  %12 = getelementptr inbounds nuw %struct.AVTextFormatContext, ptr %11, i32 0, i32 7
  %13 = load i32, ptr %12, align 4, !tbaa !21
  %14 = call ptr @tf_get_section(ptr noundef %10, i32 noundef %13)
  store ptr %14, ptr %4, align 8, !tbaa !22
  call void @llvm.lifetime.start.p0(i64 32, ptr %5) #6
  %15 = load ptr, ptr %4, align 8, !tbaa !22
  %16 = icmp ne ptr %15, null
  br i1 %16, label %18, label %17

17:                                               ; preds = %1
  store i32 1, ptr %6, align 4
  br label %48

18:                                               ; preds = %1
  %19 = load ptr, ptr %3, align 8, !tbaa !19
  %20 = getelementptr inbounds nuw %struct.DefaultContext, ptr %19, i32 0, i32 2
  %21 = load i32, ptr %20, align 4, !tbaa !31
  %22 = icmp ne i32 %21, 0
  br i1 %22, label %33, label %23

23:                                               ; preds = %18
  %24 = load ptr, ptr %3, align 8, !tbaa !19
  %25 = getelementptr inbounds nuw %struct.DefaultContext, ptr %24, i32 0, i32 3
  %26 = load ptr, ptr %2, align 8, !tbaa !4
  %27 = getelementptr inbounds nuw %struct.AVTextFormatContext, ptr %26, i32 0, i32 7
  %28 = load i32, ptr %27, align 4, !tbaa !21
  %29 = sext i32 %28 to i64
  %30 = getelementptr inbounds [12 x i32], ptr %25, i64 0, i64 %29
  %31 = load i32, ptr %30, align 4, !tbaa !26
  %32 = icmp ne i32 %31, 0
  br i1 %32, label %33, label %34

33:                                               ; preds = %23, %18
  store i32 1, ptr %6, align 4
  br label %48

34:                                               ; preds = %23
  %35 = load ptr, ptr %4, align 8, !tbaa !22
  %36 = getelementptr inbounds nuw %struct.AVTextFormatSection, ptr %35, i32 0, i32 2
  %37 = load i32, ptr %36, align 8, !tbaa !23
  %38 = and i32 %37, 3
  %39 = icmp ne i32 %38, 0
  br i1 %39, label %47, label %40

40:                                               ; preds = %34
  %41 = load ptr, ptr %2, align 8, !tbaa !4
  %42 = getelementptr inbounds [32 x i8], ptr %5, i64 0, i64 0
  %43 = load ptr, ptr %4, align 8, !tbaa !22
  %44 = getelementptr inbounds nuw %struct.AVTextFormatSection, ptr %43, i32 0, i32 1
  %45 = load ptr, ptr %44, align 8, !tbaa !30
  %46 = call ptr @upcase_string(ptr noundef %42, i64 noundef 32, ptr noundef %45)
  call void (ptr, ptr, ...) @writer_printf(ptr noundef %41, ptr noundef @.str.12, ptr noundef %46)
  br label %47

47:                                               ; preds = %40, %34
  store i32 0, ptr %6, align 4
  br label %48

48:                                               ; preds = %47, %33, %17
  call void @llvm.lifetime.end.p0(i64 32, ptr %5) #6
  call void @llvm.lifetime.end.p0(i64 8, ptr %4) #6
  call void @llvm.lifetime.end.p0(i64 8, ptr %3) #6
  %49 = load i32, ptr %6, align 4
  switch i32 %49, label %51 [
    i32 0, label %50
    i32 1, label %50
  ]

50:                                               ; preds = %48, %48
  ret void

51:                                               ; preds = %48
  unreachable
}