; Function Attrs: nounwind uwtable
define internal void @default_print_section_footer(ptr noundef %0) #0 {
  %2 = alloca [32 x i8], align 16
  %3 = getelementptr inbounds nuw i8, ptr %0, i64 32
  %4 = load ptr, ptr %3, align 8, !tbaa !4
  %5 = getelementptr inbounds nuw i8, ptr %0, i64 52
  %6 = load i32, ptr %5, align 4, !tbaa !16
  %7 = icmp eq ptr %0, null
  %8 = icmp ugt i32 %6, 11
  %or.cond3.i = or i1 %7, %8
  br i1 %or.cond3.i, label %tf_get_section.exit.thread, label %9

9:                                                ; preds = %1
  %10 = getelementptr inbounds nuw i8, ptr %0, i64 4904
  %11 = zext nneg i32 %6 to i64
  %12 = getelementptr inbounds nuw [12 x ptr], ptr %10, i64 0, i64 %11
  %13 = load ptr, ptr %12, align 8, !tbaa !17
  %.not.i = icmp eq ptr %13, null
  br i1 %.not.i, label %tf_get_section.exit.thread, label %14

tf_get_section.exit.thread:                       ; preds = %9, %1
  tail call void (ptr, i32, ptr, ...) @av_log(ptr noundef nonnull %0, i32 noundef 16, ptr noundef nonnull @.str.11, i32 noundef %6) #5
  call void @llvm.lifetime.start.p0(i64 32, ptr nonnull %2) #5
  br label %42

14:                                               ; preds = %9
  call void @llvm.lifetime.start.p0(i64 32, ptr nonnull %2) #5
  %15 = getelementptr inbounds nuw i8, ptr %4, i64 12
  %16 = load i32, ptr %15, align 4, !tbaa !29
  %.not10 = icmp eq i32 %16, 0
  br i1 %.not10, label %17, label %42

17:                                               ; preds = %14
  %18 = getelementptr inbounds nuw i8, ptr %4, i64 16
  %19 = zext nneg i32 %6 to i64
  %20 = getelementptr inbounds nuw [12 x i32], ptr %18, i64 0, i64 %19
  %21 = load i32, ptr %20, align 4, !tbaa !21
  %.not11 = icmp eq i32 %21, 0
  br i1 %.not11, label %22, label %42

22:                                               ; preds = %17
  %23 = getelementptr inbounds nuw i8, ptr %13, i64 16
  %24 = load i32, ptr %23, align 8, !tbaa !18
  %25 = and i32 %24, 3
  %.not12 = icmp eq i32 %25, 0
  br i1 %.not12, label %26, label %42

26:                                               ; preds = %22
  %27 = getelementptr inbounds nuw i8, ptr %13, i64 8
  %28 = load ptr, ptr %27, align 8, !tbaa !25
  %29 = load i8, ptr %28, align 1, !tbaa !26
  %.not.i13 = icmp eq i8 %29, 0
  br i1 %.not.i13, label %upcase_string.exit, label %.lr.ph.i

.lr.ph.i:                                         ; preds = %26, %.lr.ph.i
  %indvars.iv.i = phi i64 [ %indvars.iv.next.i, %.lr.ph.i ], [ 0, %26 ]
  %30 = phi i8 [ %37, %.lr.ph.i ], [ %29, %26 ]
  %31 = sext i8 %30 to i32
  %32 = add nsw i32 %31, -97
  %or.cond.i.i = icmp ult i32 %32, 26
  %33 = and i8 %30, 95
  %34 = select i1 %or.cond.i.i, i8 %33, i8 %30
  %35 = getelementptr inbounds nuw i8, ptr %2, i64 %indvars.iv.i
  store i8 %34, ptr %35, align 1, !tbaa !26
  %indvars.iv.next.i = add nuw nsw i64 %indvars.iv.i, 1
  %36 = getelementptr inbounds nuw i8, ptr %28, i64 %indvars.iv.next.i
  %37 = load i8, ptr %36, align 1, !tbaa !26
  %38 = icmp ne i8 %37, 0
  %39 = icmp samesign ult i64 %indvars.iv.i, 30
  %40 = and i1 %39, %38
  br i1 %40, label %.lr.ph.i, label %upcase_string.exit, !llvm.loop !27

upcase_string.exit:                               ; preds = %.lr.ph.i, %26
  %.lcssa.i = phi i64 [ 0, %26 ], [ %indvars.iv.next.i, %.lr.ph.i ]
  %41 = getelementptr inbounds nuw i8, ptr %2, i64 %.lcssa.i
  store i8 0, ptr %41, align 1, !tbaa !26
  call void (ptr, ptr, ...) @writer_printf(ptr noundef nonnull %0, ptr noundef nonnull @.str.12, ptr noundef nonnull %2)
  br label %42

42:                                               ; preds = %tf_get_section.exit.thread, %22, %upcase_string.exit, %14, %17
  call void @llvm.lifetime.end.p0(i64 32, ptr nonnull %2) #5
  ret void
}